target datalayout = "e-m:e-p270:32:32-p271:32:32-p272:64:64-i64:64-i128:128-f80:128-n8:16:32:64-S128"
target triple = "x86_64-pc-linux-gnu"

%struct.DomainConstraintCache = type { ptr, ptr, i64 }
%struct.DomainConstraintRef = type { ptr, ptr, ptr, i8, ptr, %struct.MemoryContextCallback }
%struct.MemoryContextCallback = type { ptr, ptr, ptr }

; Function Attrs: nounwind uwtable
define internal void @decr_dcc_refcount(ptr noundef %0) #0 {
  %2 = alloca ptr, align 8
  store ptr %0, ptr %2, align 8
  %3 = load ptr, ptr %2, align 8
  %4 = getelementptr inbounds nuw %struct.DomainConstraintCache, ptr %3, i32 0, i32 2
  %5 = load i64, ptr %4, align 8
  %6 = add i64 %5, -1
  store i64 %6, ptr %4, align 8
  %7 = icmp sle i64 %6, 0
  br i1 %7, label %8, label %12

8:                                                ; preds = %1
  %9 = load ptr, ptr %2, align 8
  %10 = getelementptr inbounds nuw %struct.DomainConstraintCache, ptr %9, i32 0, i32 1
  %11 = load ptr, ptr %10, align 8
  call void @MemoryContextDelete(ptr noundef %11)
  br label %12

12:                                               ; preds = %8, %1
  ret void
}

; Function Attrs: nounwind uwtable
define internal void @dccref_deletion_callback(ptr noundef %0) #0 {
  %2 = alloca ptr, align 8
  %3 = alloca ptr, align 8
  %4 = alloca ptr, align 8
  store ptr %0, ptr %2, align 8
  call void @llvm.lifetime.start.p0(i64 8, ptr %3) #11
  %5 = load ptr, ptr %2, align 8
  store ptr %5, ptr %3, align 8
  call void @llvm.lifetime.start.p0(i64 8, ptr %4) #11
  %6 = load ptr, ptr %3, align 8
  %7 = getelementptr inbounds nuw %struct.DomainConstraintRef, ptr %6, i32 0, i32 4
  %8 = load ptr, ptr %7, align 8
  store ptr %8, ptr %4, align 8
  %9 = load ptr, ptr %4, align 8
  %10 = icmp ne ptr %9, null
  br i1 %10, label %11, label %17

11:                                               ; preds = %1
  %12 = load ptr, ptr %3, align 8
  %13 = getelementptr inbounds nuw %struct.DomainConstraintRef, ptr %12, i32 0, i32 0
  store ptr null, ptr %13, align 8
  %14 = load ptr, ptr %3, align 8
  %15 = getelementptr inbounds nuw %struct.DomainConstraintRef, ptr %14, i32 0, i32 4
  store ptr null, ptr %15, align 8
  %16 = load ptr, ptr %4, align 8
  call void @decr_dcc_refcount(ptr noundef %16)
  br label %17

17:                                               ; preds = %11, %1
  call void @llvm.lifetime.end.p0(i64 8, ptr %4) #11
  call void @llvm.lifetime.end.p0(i64 8, ptr %3) #11
  ret void
}