; Function Attrs: nounwind uwtable
define internal void @dccref_deletion_callback(ptr noundef captures(none) %0) #0 {
  %2 = getelementptr inbounds nuw i8, ptr %0, i64 32
  %3 = load ptr, ptr %2, align 8
  %.not = icmp eq ptr %3, null
  br i1 %.not, label %decr_dcc_refcount.exit, label %4

4:                                                ; preds = %1
  store ptr null, ptr %0, align 8
  store ptr null, ptr %2, align 8
  %5 = getelementptr inbounds nuw i8, ptr %3, i64 16
  %6 = load i64, ptr %5, align 8
  %7 = add i64 %6, -1
  store i64 %7, ptr %5, align 8
  %8 = icmp slt i64 %7, 1
  br i1 %8, label %9, label %decr_dcc_refcount.exit

9:                                                ; preds = %4
  %10 = getelementptr inbounds nuw i8, ptr %3, i64 8
  %11 = load ptr, ptr %10, align 8
  tail call void @MemoryContextDelete(ptr noundef %11) #16
  br label %decr_dcc_refcount.exit

decr_dcc_refcount.exit:                           ; preds = %9, %4, %1
  ret void
}